; Function Attrs: mustprogress nofree norecurse nosync nounwind willreturn memory(argmem: readwrite) uwtable
define void @_ZNK2cv10softdoublecvNS_9softfloatEEv(ptr dead_on_unwind noalias nocapture writable writeonly sret(%"struct.cv::softfloat") align 4 %0, ptr nocapture noundef nonnull readonly align 8 dereferenceable(8) %1) local_unnamed_addr #2 align 2 {
  %3 = load i64, ptr %1, align 8
  %4 = icmp slt i64 %3, 0
  %5 = lshr i64 %3, 52
  %6 = and i64 %5, 2047
  %7 = and i64 %3, 4503599627370495
  %8 = icmp eq i64 %6, 2047
  br i1 %8, label %9, label %18

9:                                                ; preds = %2
  %.not16.i = icmp eq i64 %7, 0
  %sh.diff17.i = lshr i64 %3, 32
  %10 = and i64 %sh.diff17.i, 2147483648
  br i1 %.not16.i, label %16, label %11

11:                                               ; preds = %9
  %12 = lshr i64 %3, 29
  %13 = and i64 %12, 4194303
  %14 = or disjoint i64 %10, %13
  %15 = or disjoint i64 %14, 2143289344
  br label %_ZN2cvL10f64_to_f32ENS_10softdoubleE.exit

16:                                               ; preds = %9
  %17 = or disjoint i64 %10, 2139095040
  br label %_ZN2cvL10f64_to_f32ENS_10softdoubleE.exit

18:                                               ; preds = %2
  %19 = lshr i64 %7, 22
  %20 = and i64 %3, 4194303
  %21 = icmp ne i64 %20, 0
  %22 = zext i1 %21 to i64
  %23 = or i64 %19, %22
  %24 = or i64 %23, %6
  %.not.i = icmp eq i64 %24, 0
  br i1 %.not.i, label %25, label %27

25:                                               ; preds = %18
  %sh.diff.i = lshr i64 %3, 32
  %26 = and i64 %sh.diff.i, 2147483648
  br label %_ZN2cvL10f64_to_f32ENS_10softdoubleE.exit

27:                                               ; preds = %18
  %28 = add nsw i64 %6, -897
  %29 = or disjoint i64 %23, 1073741824
  %30 = trunc i64 %23 to i8
  %31 = icmp ugt i64 %28, 252
  br i1 %31, label %32, label %55

32:                                               ; preds = %27
  %33 = icmp ult i64 %6, 897
  br i1 %33, label %34, label %49

34:                                               ; preds = %32
  %35 = icmp ugt i64 %6, 866
  br i1 %35, label %36, label %_ZN2cvL25softfloat_shiftRightJam32Ejm.exit.i.i

36:                                               ; preds = %34
  %37 = trunc nuw nsw i64 %29 to i32
  %38 = trunc nuw nsw i64 %6 to i32
  %.neg.i = add nuw nsw i32 %38, 31
  %39 = sub nuw nsw i32 897, %38
  %40 = lshr i32 %37, %39
  %41 = and i32 %.neg.i, 31
  %42 = shl i32 %37, %41
  %43 = icmp ne i32 %42, 0
  %44 = zext i1 %43 to i32
  %45 = or i32 %40, %44
  br label %_ZN2cvL25softfloat_shiftRightJam32Ejm.exit.i.i

_ZN2cvL25softfloat_shiftRightJam32Ejm.exit.i.i:   ; preds = %36, %34
  %46 = phi i32 [ %45, %36 ], [ 1, %34 ]
  %47 = zext nneg i32 %46 to i64
  %48 = trunc i32 %46 to i8
  br label %55

49:                                               ; preds = %32
  %50 = icmp ne i64 %28, 253
  %51 = add nsw i64 %19, -1073741760
  %52 = icmp ult i64 %51, -2147483648
  %or.cond.i.i = or i1 %50, %52
  br i1 %or.cond.i.i, label %53, label %55

53:                                               ; preds = %49
  %54 = select i1 %4, i64 4286578688, i64 2139095040
  br label %_ZN2cvL10f64_to_f32ENS_10softdoubleE.exit

55:                                               ; preds = %49, %_ZN2cvL25softfloat_shiftRightJam32Ejm.exit.i.i, %27
  %.041.i.i = phi i64 [ %29, %27 ], [ %29, %49 ], [ %47, %_ZN2cvL25softfloat_shiftRightJam32Ejm.exit.i.i ]
  %.039.in.i.i = phi i8 [ %30, %27 ], [ %30, %49 ], [ %48, %_ZN2cvL25softfloat_shiftRightJam32Ejm.exit.i.i ]
  %.038.i.i = phi i64 [ %28, %27 ], [ 253, %49 ], [ 0, %_ZN2cvL25softfloat_shiftRightJam32Ejm.exit.i.i ]
  %.039.i.i = and i8 %.039.in.i.i, 127
  %56 = add nuw nsw i64 %.041.i.i, 64
  %57 = lshr i64 %56, 7
  %.not48.i.i = icmp eq i8 %.039.i.i, 64
  %58 = zext i1 %.not48.i.i to i64
  %59 = xor i64 %58, -1
  %60 = and i64 %57, %59
  %.not49.i.i = icmp eq i64 %60, 0
  %61 = shl nuw nsw i64 %.038.i.i, 23
  %62 = lshr i64 %3, 32
  %63 = and i64 %62, 2147483648
  %64 = select i1 %.not49.i.i, i64 0, i64 %61
  %65 = add nuw nsw i64 %60, %63
  %66 = add nuw nsw i64 %65, %64
  br label %_ZN2cvL10f64_to_f32ENS_10softdoubleE.exit

_ZN2cvL10f64_to_f32ENS_10softdoubleE.exit:        ; preds = %11, %16, %25, %53, %55
  %storemerge.in.i = phi i64 [ %66, %55 ], [ %54, %53 ], [ %15, %11 ], [ %17, %16 ], [ %26, %25 ]
  %storemerge.i = trunc i64 %storemerge.in.i to i32
  store i32 %storemerge.i, ptr %0, align 4, !alias.scope !55
  ret void
}